; ModuleID = 'source-C-CXX/14/383.c'
source_filename = "source-C-CXX/14/383.c"
target datalayout = "e-m:e-p270:32:32-p271:32:32-p272:64:64-i64:64-f80:128-n8:16:32:64-S128"
target triple = "x86_64-pc-linux-gnu"

@.str = private unnamed_addr constant [3 x i8] c"%d\00", align 1
@.str.1 = private unnamed_addr constant [4 x i8] c"%d\0A\00", align 1

; Function Attrs: nofree nounwind sspstrong uwtable
define dso_local i32 @main() local_unnamed_addr #0 {
  %1 = alloca i32, align 4
  %2 = alloca [1000 x i32], align 16
  %3 = bitcast i32* %1 to i8*
  call void @llvm.lifetime.start.p0i8(i64 4, i8* nonnull %3) #3
  %4 = bitcast [1000 x i32]* %2 to i8*
  call void @llvm.lifetime.start.p0i8(i64 4000, i8* nonnull %4) #3
  %5 = call i32 (i8*, ...) @__isoc99_scanf(i8* getelementptr inbounds ([3 x i8], [3 x i8]* @.str, i64 0, i64 0), i32* nonnull %1)
  %6 = load i32, i32* %1, align 4, !tbaa !5
  %7 = icmp sgt i32 %6, 0
  br i1 %7, label %8, label %48

8:                                                ; preds = %0, %40
  %9 = phi i32 [ %41, %40 ], [ %6, %0 ]
  %10 = phi i32 [ %46, %40 ], [ 0, %0 ]
  %11 = phi i32 [ %45, %40 ], [ undef, %0 ]
  %12 = phi i32 [ %44, %40 ], [ undef, %0 ]
  %13 = phi i32 [ %43, %40 ], [ undef, %0 ]
  %14 = phi i32 [ %42, %40 ], [ -1, %0 ]
  %15 = icmp sgt i32 %9, 0
  br i1 %15, label %16, label %40

16:                                               ; preds = %8, %31
  %17 = phi i64 [ %36, %31 ], [ 0, %8 ]
  %18 = phi i32 [ %35, %31 ], [ %11, %8 ]
  %19 = phi i32 [ %34, %31 ], [ %12, %8 ]
  %20 = phi i32 [ %33, %31 ], [ %13, %8 ]
  %21 = phi i32 [ %32, %31 ], [ %14, %8 ]
  %22 = getelementptr inbounds [1000 x i32], [1000 x i32]* %2, i64 0, i64 %17
  %23 = call i32 (i8*, ...) @__isoc99_scanf(i8* getelementptr inbounds ([3 x i8], [3 x i8]* @.str, i64 0, i64 0), i32* nonnull %22)
  %24 = load i32, i32* %22, align 4, !tbaa !5
  %25 = icmp eq i32 %24, 0
  br i1 %25, label %26, label %31

26:                                               ; preds = %16
  %27 = icmp eq i32 %21, -1
  %28 = select i1 %27, i32 %10, i32 %21
  %29 = trunc i64 %17 to i32
  %30 = select i1 %27, i32 %29, i32 %20
  br label %31

31:                                               ; preds = %16, %26
  %32 = phi i32 [ %28, %26 ], [ %21, %16 ]
  %33 = phi i32 [ %30, %26 ], [ %20, %16 ]
  %34 = phi i32 [ %10, %26 ], [ %19, %16 ]
  %35 = phi i32 [ %29, %26 ], [ %18, %16 ]
  %36 = add nuw nsw i64 %17, 1
  %37 = load i32, i32* %1, align 4, !tbaa !5
  %38 = sext i32 %37 to i64
  %39 = icmp slt i64 %36, %38
  br i1 %39, label %16, label %40, !llvm.loop !9

40:                                               ; preds = %31, %8
  %41 = phi i32 [ %9, %8 ], [ %37, %31 ]
  %42 = phi i32 [ %14, %8 ], [ %32, %31 ]
  %43 = phi i32 [ %13, %8 ], [ %33, %31 ]
  %44 = phi i32 [ %12, %8 ], [ %34, %31 ]
  %45 = phi i32 [ %11, %8 ], [ %35, %31 ]
  %46 = add nuw nsw i32 %10, 1
  %47 = icmp slt i32 %46, %41
  br i1 %47, label %8, label %48, !llvm.loop !11

48:                                               ; preds = %40, %0
  %49 = phi i32 [ -1, %0 ], [ %42, %40 ]
  %50 = phi i32 [ undef, %0 ], [ %43, %40 ]
  %51 = phi i32 [ undef, %0 ], [ %44, %40 ]
  %52 = phi i32 [ undef, %0 ], [ %45, %40 ]
  %53 = xor i32 %49, -1
  %54 = add i32 %51, %53
  %55 = xor i32 %50, -1
  %56 = add i32 %52, %55
  %57 = mul nsw i32 %56, %54
  %58 = call i32 (i8*, ...) @printf(i8* nonnull dereferenceable(1) getelementptr inbounds ([4 x i8], [4 x i8]* @.str.1, i64 0, i64 0), i32 %57)
  call void @llvm.lifetime.end.p0i8(i64 4000, i8* nonnull %4) #3
  call void @llvm.lifetime.end.p0i8(i64 4, i8* nonnull %3) #3
  ret i32 0
}

; Function Attrs: argmemonly mustprogress nofree nosync nounwind willreturn
declare void @llvm.lifetime.start.p0i8(i64 immarg, i8* nocapture) #1

; Function Attrs: nofree nounwind
declare noundef i32 @__isoc99_scanf(i8* nocapture noundef readonly, ...) local_unnamed_addr #2

; Function Attrs: nofree nounwind
declare noundef i32 @printf(i8* nocapture noundef readonly, ...) local_unnamed_addr #2

; Function Attrs: argmemonly mustprogress nofree nosync nounwind willreturn
declare void @llvm.lifetime.end.p0i8(i64 immarg, i8* nocapture) #1


!llvm.module.flags = !{!0, !1, !2, !3}
!llvm.ident = !{!4}

!0 = !{i32 1, !"wchar_size", i32 4}
!1 = !{i32 7, !"PIC Level", i32 2}
!2 = !{i32 7, !"PIE Level", i32 2}
!3 = !{i32 7, !"uwtable", i32 1}
!4 = !{!"clang version 13.0.0"}
!5 = !{!6, !6, i64 0}
!6 = !{!"int", !7, i64 0}
!7 = !{!"omnipotent char", !8, i64 0}
!8 = !{!"Simple C/C++ TBAA"}
!9 = distinct !{!9, !10}
!10 = !{!"llvm.loop.mustprogress"}
!11 = distinct !{!11, !10, !12}
!12 = !{!"llvm.loop.unswitch.partial.disable"}
